target datalayout = "e-m:e-p270:32:32-p271:32:32-p272:64:64-i64:64-i128:128-f80:128-n8:16:32:64-S128"
target triple = "x86_64-pc-linux-gnu"

%struct.SurfaceDataRasInfo = type { %struct.SurfaceDataBounds, ptr, i32, i32, i32, i32, ptr, ptr, ptr, ptr, ptr, ptr, i32, %union.anon.0 }
%struct.SurfaceDataBounds = type { i32, i32, i32, i32 }
%union.anon.0 = type { ptr, [56 x i8] }

; Function Attrs: nounwind uwtable
define hidden void @ThreeByteBgrToIntRgbConvert(ptr noundef %0, ptr noundef %1, i32 noundef %2, i32 noundef %3, ptr noundef %4, ptr noundef %5, ptr noundef %6, ptr noundef %7) #1 {
  %9 = alloca ptr, align 8
  %10 = alloca ptr, align 8
  %11 = alloca i32, align 4
  %12 = alloca i32, align 4
  %13 = alloca ptr, align 8
  %14 = alloca ptr, align 8
  %15 = alloca ptr, align 8
  %16 = alloca ptr, align 8
  %17 = alloca ptr, align 8
  %18 = alloca ptr, align 8
  %19 = alloca i32, align 4
  %20 = alloca i32, align 4
  %21 = alloca i32, align 4
  %22 = alloca i32, align 4
  store ptr %0, ptr %9, align 8
  store ptr %1, ptr %10, align 8
  store i32 %2, ptr %11, align 4
  store i32 %3, ptr %12, align 4
  store ptr %4, ptr %13, align 8
  store ptr %5, ptr %14, align 8
  store ptr %6, ptr %15, align 8
  store ptr %7, ptr %16, align 8
  br label %23

23:                                               ; preds = %8
  %24 = load ptr, ptr %9, align 8
  store ptr %24, ptr %17, align 8
  %25 = load ptr, ptr %10, align 8
  store ptr %25, ptr %18, align 8
  %26 = load ptr, ptr %13, align 8
  %27 = getelementptr inbounds %struct.SurfaceDataRasInfo, ptr %26, i32 0, i32 4
  %28 = load i32, ptr %27, align 8
  store i32 %28, ptr %19, align 4
  %29 = load ptr, ptr %14, align 8
  %30 = getelementptr inbounds %struct.SurfaceDataRasInfo, ptr %29, i32 0, i32 4
  %31 = load i32, ptr %30, align 8
  store i32 %31, ptr %20, align 4
  %32 = load i32, ptr %11, align 4
  %33 = mul i32 %32, 3
  %34 = load i32, ptr %19, align 4
  %35 = sub i32 %34, %33
  store i32 %35, ptr %19, align 4
  %36 = load i32, ptr %11, align 4
  %37 = mul i32 %36, 4
  %38 = load i32, ptr %20, align 4
  %39 = sub i32 %38, %37
  store i32 %39, ptr %20, align 4
  br label %40

40:                                               ; preds = %90, %23
  %41 = load i32, ptr %11, align 4
  store i32 %41, ptr %21, align 4
  br label %42

42:                                               ; preds = %73, %40
  br label %43

43:                                               ; preds = %42
  %44 = load ptr, ptr %17, align 8
  %45 = getelementptr inbounds i8, ptr %44, i64 0
  %46 = load i8, ptr %45, align 1
  %47 = zext i8 %46 to i32
  %48 = shl i32 %47, 0
  %49 = load ptr, ptr %17, align 8
  %50 = getelementptr inbounds i8, ptr %49, i64 1
  %51 = load i8, ptr %50, align 1
  %52 = zext i8 %51 to i32
  %53 = shl i32 %52, 8
  %54 = or i32 %48, %53
  %55 = load ptr, ptr %17, align 8
  %56 = getelementptr inbounds i8, ptr %55, i64 2
  %57 = load i8, ptr %56, align 1
  %58 = zext i8 %57 to i32
  %59 = shl i32 %58, 16
  %60 = or i32 %54, %59
  store i32 %60, ptr %22, align 4
  %61 = load i32, ptr %22, align 4
  %62 = load ptr, ptr %18, align 8
  %63 = getelementptr inbounds i32, ptr %62, i64 0
  store i32 %61, ptr %63, align 4
  br label %64

64:                                               ; preds = %43
  %65 = load ptr, ptr %17, align 8
  %66 = ptrtoint ptr %65 to i64
  %67 = add nsw i64 %66, 3
  %68 = inttoptr i64 %67 to ptr
  store ptr %68, ptr %17, align 8
  %69 = load ptr, ptr %18, align 8
  %70 = ptrtoint ptr %69 to i64
  %71 = add nsw i64 %70, 4
  %72 = inttoptr i64 %71 to ptr
  store ptr %72, ptr %18, align 8
  br label %73

73:                                               ; preds = %64
  %74 = load i32, ptr %21, align 4
  %75 = add i32 %74, -1
  store i32 %75, ptr %21, align 4
  %76 = icmp ugt i32 %75, 0
  br i1 %76, label %42, label %77, !llvm.loop !9

77:                                               ; preds = %73
  %78 = load ptr, ptr %17, align 8
  %79 = ptrtoint ptr %78 to i64
  %80 = load i32, ptr %19, align 4
  %81 = sext i32 %80 to i64
  %82 = add nsw i64 %79, %81
  %83 = inttoptr i64 %82 to ptr
  store ptr %83, ptr %17, align 8
  %84 = load ptr, ptr %18, align 8
  %85 = ptrtoint ptr %84 to i64
  %86 = load i32, ptr %20, align 4
  %87 = sext i32 %86 to i64
  %88 = add nsw i64 %85, %87
  %89 = inttoptr i64 %88 to ptr
  store ptr %89, ptr %18, align 8
  br label %90

90:                                               ; preds = %77
  %91 = load i32, ptr %12, align 4
  %92 = add i32 %91, -1
  store i32 %92, ptr %12, align 4
  %93 = icmp ugt i32 %92, 0
  br i1 %93, label %40, label %94, !llvm.loop !10

94:                                               ; preds = %90
  br label %95

95:                                               ; preds = %94
  ret void
}