; Function Attrs: nofree norecurse nosync nounwind memory(readwrite, inaccessiblemem: none) uwtable
define hidden void @ThreeByteBgrToIntRgbConvert(ptr noundef %0, ptr noundef %1, i32 noundef %2, i32 noundef %3, ptr nocapture noundef readonly %4, ptr nocapture noundef readonly %5, ptr nocapture readnone %6, ptr nocapture readnone %7) #1 {
  %9 = getelementptr inbounds i8, ptr %4, i64 32
  %10 = load i32, ptr %9, align 8
  %11 = getelementptr inbounds i8, ptr %5, i64 32
  %12 = load i32, ptr %11, align 8
  %.neg = mul i32 %2, -3
  %13 = add i32 %10, %.neg
  %14 = shl i32 %2, 2
  %15 = sub i32 %12, %14
  %16 = sext i32 %13 to i64
  %17 = sext i32 %15 to i64
  br label %18

18:                                               ; preds = %34, %8
  %.023 = phi ptr [ %0, %8 ], [ %36, %34 ]
  %.022 = phi ptr [ %1, %8 ], [ %38, %34 ]
  %.0 = phi i32 [ %3, %8 ], [ %39, %34 ]
  br label %19

19:                                               ; preds = %19, %18
  %.124 = phi ptr [ %.023, %18 ], [ %29, %19 ]
  %.1 = phi ptr [ %.022, %18 ], [ %32, %19 ]
  %.021 = phi i32 [ %2, %18 ], [ %33, %19 ]
  %20 = load i16, ptr %.124, align 1
  %21 = zext i16 %20 to i32
  %22 = getelementptr inbounds i8, ptr %.124, i64 2
  %23 = load i8, ptr %22, align 1
  %24 = zext i8 %23 to i32
  %25 = shl nuw nsw i32 %24, 16
  %26 = or disjoint i32 %25, %21
  store i32 %26, ptr %.1, align 4
  %27 = ptrtoint ptr %.124 to i64
  %28 = add nsw i64 %27, 3
  %29 = inttoptr i64 %28 to ptr
  %30 = ptrtoint ptr %.1 to i64
  %31 = add nsw i64 %30, 4
  %32 = inttoptr i64 %31 to ptr
  %33 = add i32 %.021, -1
  %.not = icmp eq i32 %33, 0
  br i1 %.not, label %34, label %19, !llvm.loop !9

34:                                               ; preds = %19
  %35 = add nsw i64 %28, %16
  %36 = inttoptr i64 %35 to ptr
  %37 = add nsw i64 %31, %17
  %38 = inttoptr i64 %37 to ptr
  %39 = add i32 %.0, -1
  %.not26 = icmp eq i32 %39, 0
  br i1 %.not26, label %40, label %18, !llvm.loop !10

40:                                               ; preds = %34
  ret void
}